target datalayout = "e-m:e-p270:32:32-p271:32:32-p272:64:64-i64:64-i128:128-f80:128-n8:16:32:64-S128"
target triple = "x86_64-pc-linux-gnu"

%struct.hwloc_backend = type { ptr, ptr, i32, ptr, i32, i64, i32, ptr, ptr, ptr }
%struct.hwloc_x86_backend_data_s = type { i32, ptr, i32, ptr, i32, i32, i32, i32, i32, i32, i32 }
%struct.dirent = type { i64, i64, i16, i8, [256 x i8] }

@.str.1 = private unnamed_addr constant [17 x i8] c"HWLOC_CPUID_PATH\00", align 1
@stderr = external global ptr, align 8
@.str.2 = private unnamed_addr constant [45 x i8] c"hwloc/x86: Ignoring dumped cpuid directory.\0A\00", align 1
@.str.10 = private unnamed_addr constant [2 x i8] c"r\00", align 1
@.str.65 = private unnamed_addr constant [20 x i8] c"%s/hwloc-cpuid-info\00", align 1
@.str.66 = private unnamed_addr constant [50 x i8] c"hwloc/x86: Couldn't open dumped cpuid summary %s\0A\00", align 1
@.str.67 = private unnamed_addr constant [50 x i8] c"hwloc/x86: Found read dumped cpuid summary in %s\0A\00", align 1
@.str.68 = private unnamed_addr constant [18 x i8] c"Architecture: x86\00", align 1
@.str.69 = private unnamed_addr constant [57 x i8] c"hwloc/x86: Found non-x86 dumped cpuid summary in %s: %s\0A\00", align 1
@.str.70 = private unnamed_addr constant [3 x i8] c"pu\00", align 1
@.str.71 = private unnamed_addr constant [72 x i8] c"hwloc/x86: Ignoring invalid dirent `%s' in dumped cpuid directory `%s'\0A\00", align 1
@.str.72 = private unnamed_addr constant [78 x i8] c"hwloc/x86: Did not find any valid pu%%u entry in dumped cpuid directory `%s'\0A\00", align 1
@.str.73 = private unnamed_addr constant [75 x i8] c"hwloc/x86: Found non-contigous pu%%u range in dumped cpuid directory `%s'\0A\00", align 1

; Function Attrs: nounwind uwtable
define internal i32 @hwloc_x86_check_cpuiddump_input(ptr noundef %0, ptr noundef %1) #0 {
  %3 = alloca i32, align 4
  %4 = alloca ptr, align 8
  %5 = alloca ptr, align 8
  %6 = alloca ptr, align 8
  %7 = alloca ptr, align 8
  %8 = alloca ptr, align 8
  %9 = alloca ptr, align 8
  %10 = alloca [32 x i8], align 16
  %11 = alloca i32, align 4
  %12 = alloca ptr, align 8
  %13 = alloca i64, align 8
  store ptr %0, ptr %4, align 8, !tbaa !34
  store ptr %1, ptr %5, align 8, !tbaa !35
  call void @llvm.lifetime.start.p0(i64 8, ptr %6) #15
  call void @llvm.lifetime.start.p0(i64 8, ptr %7) #15
  call void @llvm.lifetime.start.p0(i64 8, ptr %8) #15
  call void @llvm.lifetime.start.p0(i64 8, ptr %9) #15
  call void @llvm.lifetime.start.p0(i64 32, ptr %10) #15
  %14 = load ptr, ptr %4, align 8, !tbaa !34
  %15 = call ptr @opendir(ptr noundef %14)
  store ptr %15, ptr %7, align 8, !tbaa !79
  %16 = load ptr, ptr %7, align 8, !tbaa !79
  %17 = icmp ne ptr %16, null
  br i1 %17, label %19, label %18

18:                                               ; preds = %2
  store i32 -1, ptr %3, align 4
  store i32 1, ptr %11, align 4
  br label %125

19:                                               ; preds = %2
  %20 = load ptr, ptr %4, align 8, !tbaa !34
  %21 = call i64 @strlen(ptr noundef %20) #16
  %22 = add i64 %21, 17
  %23 = add i64 %22, 1
  %24 = call noalias ptr @malloc(i64 noundef %23) #17
  store ptr %24, ptr %8, align 8, !tbaa !34
  %25 = load ptr, ptr %8, align 8, !tbaa !34
  %26 = icmp ne ptr %25, null
  br i1 %26, label %28, label %27

27:                                               ; preds = %19
  br label %122

28:                                               ; preds = %19
  %29 = load ptr, ptr %8, align 8, !tbaa !34
  %30 = load ptr, ptr %4, align 8, !tbaa !34
  %31 = call i32 (ptr, ptr, ...) @sprintf(ptr noundef %29, ptr noundef @.str.65, ptr noundef %30) #15
  %32 = load ptr, ptr %8, align 8, !tbaa !34
  %33 = call noalias ptr @fopen(ptr noundef %32, ptr noundef @.str.10)
  store ptr %33, ptr %9, align 8, !tbaa !38
  %34 = load ptr, ptr %9, align 8, !tbaa !38
  %35 = icmp ne ptr %34, null
  br i1 %35, label %40, label %36

36:                                               ; preds = %28
  %37 = load ptr, ptr @stderr, align 8, !tbaa !38
  %38 = load ptr, ptr %8, align 8, !tbaa !34
  %39 = call i32 (ptr, ptr, ...) @fprintf(ptr noundef %37, ptr noundef @.str.66, ptr noundef %38) #15
  br label %120

40:                                               ; preds = %28
  %41 = getelementptr inbounds [32 x i8], ptr %10, i64 0, i64 0
  %42 = load ptr, ptr %9, align 8, !tbaa !38
  %43 = call ptr @fgets(ptr noundef %41, i32 noundef 32, ptr noundef %42)
  %44 = icmp ne ptr %43, null
  br i1 %44, label %51, label %45

45:                                               ; preds = %40
  %46 = load ptr, ptr @stderr, align 8, !tbaa !38
  %47 = load ptr, ptr %8, align 8, !tbaa !34
  %48 = call i32 (ptr, ptr, ...) @fprintf(ptr noundef %46, ptr noundef @.str.67, ptr noundef %47) #15
  %49 = load ptr, ptr %9, align 8, !tbaa !38
  %50 = call i32 @fclose(ptr noundef %49)
  br label %120

51:                                               ; preds = %40
  %52 = load ptr, ptr %9, align 8, !tbaa !38
  %53 = call i32 @fclose(ptr noundef %52)
  %54 = getelementptr inbounds [32 x i8], ptr %10, i64 0, i64 0
  %55 = call i32 @strncmp(ptr noundef %54, ptr noundef @.str.68, i64 noundef 17) #16
  %56 = icmp ne i32 %55, 0
  br i1 %56, label %57, label %62

57:                                               ; preds = %51
  %58 = load ptr, ptr @stderr, align 8, !tbaa !38
  %59 = load ptr, ptr %8, align 8, !tbaa !34
  %60 = getelementptr inbounds [32 x i8], ptr %10, i64 0, i64 0
  %61 = call i32 (ptr, ptr, ...) @fprintf(ptr noundef %58, ptr noundef @.str.69, ptr noundef %59, ptr noundef %60) #15
  br label %120

62:                                               ; preds = %51
  %63 = load ptr, ptr %8, align 8, !tbaa !34
  call void @free(ptr noundef %63) #15
  br label %64

64:                                               ; preds = %96, %62
  %65 = load ptr, ptr %7, align 8, !tbaa !79
  %66 = call ptr @readdir(ptr noundef %65)
  store ptr %66, ptr %6, align 8, !tbaa !81
  %67 = icmp ne ptr %66, null
  br i1 %67, label %68, label %97

68:                                               ; preds = %64
  %69 = load ptr, ptr %6, align 8, !tbaa !81
  %70 = getelementptr inbounds nuw %struct.dirent, ptr %69, i32 0, i32 4
  %71 = getelementptr inbounds [256 x i8], ptr %70, i64 0, i64 0
  %72 = call i32 @strncmp(ptr noundef %71, ptr noundef @.str.70, i64 noundef 2) #16
  %73 = icmp ne i32 %72, 0
  br i1 %73, label %96, label %74

74:                                               ; preds = %68
  call void @llvm.lifetime.start.p0(i64 8, ptr %12) #15
  call void @llvm.lifetime.start.p0(i64 8, ptr %13) #15
  %75 = load ptr, ptr %6, align 8, !tbaa !81
  %76 = getelementptr inbounds nuw %struct.dirent, ptr %75, i32 0, i32 4
  %77 = getelementptr inbounds [256 x i8], ptr %76, i64 0, i64 0
  %78 = getelementptr inbounds i8, ptr %77, i64 2
  %79 = call i64 @strtoul(ptr noundef %78, ptr noundef %12, i32 noundef 10) #15
  store i64 %79, ptr %13, align 8, !tbaa !43
  %80 = load ptr, ptr %12, align 8, !tbaa !34
  %81 = load i8, ptr %80, align 1, !tbaa !83
  %82 = icmp ne i8 %81, 0
  br i1 %82, label %88, label %83

83:                                               ; preds = %74
  %84 = load ptr, ptr %5, align 8, !tbaa !35
  %85 = load i64, ptr %13, align 8, !tbaa !43
  %86 = trunc i64 %85 to i32
  %87 = call i32 @hwloc_bitmap_set(ptr noundef %84, i32 noundef %86)
  br label %95

88:                                               ; preds = %74
  %89 = load ptr, ptr @stderr, align 8, !tbaa !38
  %90 = load ptr, ptr %6, align 8, !tbaa !81
  %91 = getelementptr inbounds nuw %struct.dirent, ptr %90, i32 0, i32 4
  %92 = getelementptr inbounds [256 x i8], ptr %91, i64 0, i64 0
  %93 = load ptr, ptr %4, align 8, !tbaa !34
  %94 = call i32 (ptr, ptr, ...) @fprintf(ptr noundef %89, ptr noundef @.str.71, ptr noundef %92, ptr noundef %93) #15
  br label %95

95:                                               ; preds = %88, %83
  call void @llvm.lifetime.end.p0(i64 8, ptr %13) #15
  call void @llvm.lifetime.end.p0(i64 8, ptr %12) #15
  br label %96

96:                                               ; preds = %95, %68
  br label %64, !llvm.loop !84

97:                                               ; preds = %64
  %98 = load ptr, ptr %7, align 8, !tbaa !79
  %99 = call i32 @closedir(ptr noundef %98)
  %100 = load ptr, ptr %5, align 8, !tbaa !35
  %101 = call i32 @hwloc_bitmap_iszero(ptr noundef %100) #16
  %102 = icmp ne i32 %101, 0
  br i1 %102, label %103, label %107

103:                                              ; preds = %97
  %104 = load ptr, ptr @stderr, align 8, !tbaa !38
  %105 = load ptr, ptr %4, align 8, !tbaa !34
  %106 = call i32 (ptr, ptr, ...) @fprintf(ptr noundef %104, ptr noundef @.str.72, ptr noundef %105) #15
  store i32 -1, ptr %3, align 4
  store i32 1, ptr %11, align 4
  br label %125

107:                                              ; preds = %97
  %108 = load ptr, ptr %5, align 8, !tbaa !35
  %109 = call i32 @hwloc_bitmap_last(ptr noundef %108) #16
  %110 = load ptr, ptr %5, align 8, !tbaa !35
  %111 = call i32 @hwloc_bitmap_weight(ptr noundef %110) #16
  %112 = sub nsw i32 %111, 1
  %113 = icmp ne i32 %109, %112
  br i1 %113, label %114, label %118

114:                                              ; preds = %107
  %115 = load ptr, ptr @stderr, align 8, !tbaa !38
  %116 = load ptr, ptr %4, align 8, !tbaa !34
  %117 = call i32 (ptr, ptr, ...) @fprintf(ptr noundef %115, ptr noundef @.str.73, ptr noundef %116) #15
  store i32 -1, ptr %3, align 4
  store i32 1, ptr %11, align 4
  br label %125

118:                                              ; preds = %107
  br label %119

119:                                              ; preds = %118
  store i32 0, ptr %3, align 4
  store i32 1, ptr %11, align 4
  br label %125

120:                                              ; preds = %57, %45, %36
  %121 = load ptr, ptr %8, align 8, !tbaa !34
  call void @free(ptr noundef %121) #15
  br label %122

122:                                              ; preds = %120, %27
  %123 = load ptr, ptr %7, align 8, !tbaa !79
  %124 = call i32 @closedir(ptr noundef %123)
  store i32 -1, ptr %3, align 4
  store i32 1, ptr %11, align 4
  br label %125

125:                                              ; preds = %122, %119, %114, %103, %18
  call void @llvm.lifetime.end.p0(i64 32, ptr %10) #15
  call void @llvm.lifetime.end.p0(i64 8, ptr %9) #15
  call void @llvm.lifetime.end.p0(i64 8, ptr %8) #15
  call void @llvm.lifetime.end.p0(i64 8, ptr %7) #15
  call void @llvm.lifetime.end.p0(i64 8, ptr %6) #15
  %126 = load i32, ptr %3, align 4
  ret i32 %126
}

; Function Attrs: nounwind uwtable
define internal ptr @hwloc_x86_component_instantiate(ptr noundef %0, ptr noundef %1, i32 noundef %2, ptr noundef %3, ptr noundef %4, ptr noundef %5) #0 {
  %7 = alloca ptr, align 8
  %8 = alloca ptr, align 8
  %9 = alloca ptr, align 8
  %10 = alloca i32, align 4
  %11 = alloca ptr, align 8
  %12 = alloca ptr, align 8
  %13 = alloca ptr, align 8
  %14 = alloca ptr, align 8
  %15 = alloca ptr, align 8
  %16 = alloca ptr, align 8
  %17 = alloca ptr, align 8
  %18 = alloca i32, align 4
  store ptr %0, ptr %8, align 8, !tbaa !3
  store ptr %1, ptr %9, align 8, !tbaa !8
  store i32 %2, ptr %10, align 4, !tbaa !10
  store ptr %3, ptr %11, align 8, !tbaa !12
  store ptr %4, ptr %12, align 8, !tbaa !12
  store ptr %5, ptr %13, align 8, !tbaa !12
  call void @llvm.lifetime.start.p0(i64 8, ptr %14) #15
  call void @llvm.lifetime.start.p0(i64 8, ptr %15) #15
  call void @llvm.lifetime.start.p0(i64 8, ptr %16) #15
  %19 = load ptr, ptr %8, align 8, !tbaa !3
  %20 = load ptr, ptr %9, align 8, !tbaa !8
  %21 = call ptr @hwloc_backend_alloc(ptr noundef %19, ptr noundef %20, i64 noundef 64)
  store ptr %21, ptr %14, align 8, !tbaa !13
  %22 = load ptr, ptr %14, align 8, !tbaa !13
  %23 = icmp ne ptr %22, null
  br i1 %23, label %25, label %24

24:                                               ; preds = %6
  br label %80

25:                                               ; preds = %6
  %26 = load ptr, ptr %14, align 8, !tbaa !13
  %27 = getelementptr inbounds nuw %struct.hwloc_backend, ptr %26, i32 0, i32 8
  store ptr @hwloc_x86_discover, ptr %27, align 8, !tbaa !15
  %28 = load ptr, ptr %14, align 8, !tbaa !13
  %29 = getelementptr inbounds nuw %struct.hwloc_backend, ptr %28, i32 0, i32 7
  store ptr @hwloc_x86_backend_disable, ptr %29, align 8, !tbaa !18
  %30 = load ptr, ptr %14, align 8, !tbaa !13
  %31 = getelementptr inbounds nuw i8, ptr %30, i64 80
  store ptr %31, ptr %15, align 8, !tbaa !19
  %32 = load ptr, ptr %15, align 8, !tbaa !19
  %33 = getelementptr inbounds nuw %struct.hwloc_x86_backend_data_s, ptr %32, i32 0, i32 4
  store i32 0, ptr %33, align 8, !tbaa !21
  %34 = load ptr, ptr %15, align 8, !tbaa !19
  %35 = getelementptr inbounds nuw %struct.hwloc_x86_backend_data_s, ptr %34, i32 0, i32 5
  store i32 0, ptr %35, align 4, !tbaa !25
  %36 = call noalias ptr @hwloc_bitmap_alloc()
  %37 = load ptr, ptr %15, align 8, !tbaa !19
  %38 = getelementptr inbounds nuw %struct.hwloc_x86_backend_data_s, ptr %37, i32 0, i32 1
  store ptr %36, ptr %38, align 8, !tbaa !26
  %39 = load ptr, ptr %15, align 8, !tbaa !19
  %40 = getelementptr inbounds nuw %struct.hwloc_x86_backend_data_s, ptr %39, i32 0, i32 2
  store i32 1, ptr %40, align 8, !tbaa !27
  %41 = load ptr, ptr %15, align 8, !tbaa !19
  %42 = getelementptr inbounds nuw %struct.hwloc_x86_backend_data_s, ptr %41, i32 0, i32 3
  store ptr null, ptr %42, align 8, !tbaa !28
  %43 = load ptr, ptr %15, align 8, !tbaa !19
  %44 = getelementptr inbounds nuw %struct.hwloc_x86_backend_data_s, ptr %43, i32 0, i32 6
  store i32 0, ptr %44, align 8, !tbaa !29
  %45 = load ptr, ptr %15, align 8, !tbaa !19
  %46 = getelementptr inbounds nuw %struct.hwloc_x86_backend_data_s, ptr %45, i32 0, i32 7
  store i32 0, ptr %46, align 4, !tbaa !30
  %47 = load ptr, ptr %15, align 8, !tbaa !19
  %48 = getelementptr inbounds nuw %struct.hwloc_x86_backend_data_s, ptr %47, i32 0, i32 8
  store i32 0, ptr %48, align 8, !tbaa !31
  %49 = load ptr, ptr %15, align 8, !tbaa !19
  %50 = getelementptr inbounds nuw %struct.hwloc_x86_backend_data_s, ptr %49, i32 0, i32 9
  store i32 0, ptr %50, align 4, !tbaa !32
  %51 = load ptr, ptr %15, align 8, !tbaa !19
  %52 = getelementptr inbounds nuw %struct.hwloc_x86_backend_data_s, ptr %51, i32 0, i32 10
  store i32 0, ptr %52, align 8, !tbaa !33
  %53 = call ptr @getenv(ptr noundef @.str.1) #15
  store ptr %53, ptr %16, align 8, !tbaa !34
  %54 = load ptr, ptr %16, align 8, !tbaa !34
  %55 = icmp ne ptr %54, null
  br i1 %55, label %56, label %78

56:                                               ; preds = %25
  call void @llvm.lifetime.start.p0(i64 8, ptr %17) #15
  %57 = call noalias ptr @hwloc_bitmap_alloc()
  store ptr %57, ptr %17, align 8, !tbaa !35
  %58 = load ptr, ptr %16, align 8, !tbaa !34
  %59 = load ptr, ptr %17, align 8, !tbaa !35
  %60 = call i32 @hwloc_x86_check_cpuiddump_input(ptr noundef %58, ptr noundef %59)
  %61 = icmp ne i32 %60, 0
  br i1 %61, label %73, label %62

62:                                               ; preds = %56
  %63 = load ptr, ptr %14, align 8, !tbaa !13
  %64 = getelementptr inbounds nuw %struct.hwloc_backend, ptr %63, i32 0, i32 6
  store i32 0, ptr %64, align 8, !tbaa !36
  %65 = load ptr, ptr %16, align 8, !tbaa !34
  %66 = call noalias ptr @strdup(ptr noundef %65) #15
  %67 = load ptr, ptr %15, align 8, !tbaa !19
  %68 = getelementptr inbounds nuw %struct.hwloc_x86_backend_data_s, ptr %67, i32 0, i32 3
  store ptr %66, ptr %68, align 8, !tbaa !28
  %69 = load ptr, ptr %17, align 8, !tbaa !35
  %70 = call i32 @hwloc_bitmap_weight(ptr noundef %69) #16
  %71 = load ptr, ptr %15, align 8, !tbaa !19
  %72 = getelementptr inbounds nuw %struct.hwloc_x86_backend_data_s, ptr %71, i32 0, i32 0
  store i32 %70, ptr %72, align 8, !tbaa !37
  br label %76

73:                                               ; preds = %56
  %74 = load ptr, ptr @stderr, align 8, !tbaa !38
  %75 = call i32 (ptr, ptr, ...) @fprintf(ptr noundef %74, ptr noundef @.str.2) #15
  br label %76

76:                                               ; preds = %73, %62
  %77 = load ptr, ptr %17, align 8, !tbaa !35
  call void @hwloc_bitmap_free(ptr noundef %77)
  call void @llvm.lifetime.end.p0(i64 8, ptr %17) #15
  br label %78

78:                                               ; preds = %76, %25
  %79 = load ptr, ptr %14, align 8, !tbaa !13
  store ptr %79, ptr %7, align 8
  store i32 1, ptr %18, align 4
  br label %81

80:                                               ; preds = %24
  store ptr null, ptr %7, align 8
  store i32 1, ptr %18, align 4
  br label %81

81:                                               ; preds = %80, %78
  call void @llvm.lifetime.end.p0(i64 8, ptr %16) #15
  call void @llvm.lifetime.end.p0(i64 8, ptr %15) #15
  call void @llvm.lifetime.end.p0(i64 8, ptr %14) #15
  %82 = load ptr, ptr %7, align 8
  ret ptr %82
}