; Function Attrs: nounwind uwtable
define internal ptr @hwloc_x86_component_instantiate(ptr noundef %0, ptr noundef %1, i32 %2, ptr readnone captures(none) %3, ptr readnone captures(none) %4, ptr readnone captures(none) %5) #0 {
  %7 = alloca [32 x i8], align 16
  %8 = alloca ptr, align 8
  %9 = tail call ptr @hwloc_backend_alloc(ptr noundef %0, ptr noundef %1, i64 noundef 64) #22
  %.not = icmp eq ptr %9, null
  br i1 %.not, label %90, label %10

10:                                               ; preds = %6
  %11 = getelementptr inbounds nuw i8, ptr %9, i64 64
  store ptr @hwloc_x86_discover, ptr %11, align 8, !tbaa !3
  %12 = getelementptr inbounds nuw i8, ptr %9, i64 56
  store ptr @hwloc_x86_backend_disable, ptr %12, align 8, !tbaa !13
  %13 = getelementptr inbounds nuw i8, ptr %9, i64 80
  %14 = getelementptr inbounds nuw i8, ptr %9, i64 112
  store i32 0, ptr %14, align 8, !tbaa !14
  %15 = getelementptr inbounds nuw i8, ptr %9, i64 116
  store i32 0, ptr %15, align 4, !tbaa !18
  %16 = tail call noalias ptr @hwloc_bitmap_alloc() #22
  %17 = getelementptr inbounds nuw i8, ptr %9, i64 88
  store ptr %16, ptr %17, align 8, !tbaa !19
  %18 = getelementptr inbounds nuw i8, ptr %9, i64 96
  store i32 1, ptr %18, align 8, !tbaa !20
  %19 = getelementptr inbounds nuw i8, ptr %9, i64 104
  store ptr null, ptr %19, align 8, !tbaa !21
  %20 = getelementptr inbounds nuw i8, ptr %9, i64 120
  tail call void @llvm.memset.p0.i64(ptr noundef nonnull align 8 dereferenceable(20) %20, i8 0, i64 20, i1 false)
  %21 = tail call ptr @getenv(ptr noundef nonnull @.str.1) #22
  %.not29 = icmp eq ptr %21, null
  br i1 %.not29, label %90, label %22

22:                                               ; preds = %10
  %23 = tail call noalias ptr @hwloc_bitmap_alloc() #22
  call void @llvm.lifetime.start.p0(i64 32, ptr nonnull %7) #22
  %24 = tail call ptr @opendir(ptr noundef nonnull %21)
  %.not.i = icmp eq ptr %24, null
  br i1 %.not.i, label %86, label %25

25:                                               ; preds = %22
  %26 = tail call i64 @strlen(ptr noundef nonnull dereferenceable(1) %21) #23
  %27 = add i64 %26, 18
  %28 = tail call noalias ptr @malloc(i64 noundef %27) #24
  %.not34.i = icmp eq ptr %28, null
  br i1 %.not34.i, label %80, label %29

29:                                               ; preds = %25
  %30 = tail call i32 (ptr, ptr, ...) @sprintf(ptr noundef nonnull dereferenceable(1) %28, ptr noundef nonnull dereferenceable(1) @.str.65, ptr noundef nonnull %21) #22
  %31 = tail call noalias ptr @fopen(ptr noundef nonnull %28, ptr noundef nonnull @.str.10)
  %.not35.i = icmp eq ptr %31, null
  br i1 %.not35.i, label %32, label %35

32:                                               ; preds = %29
  %33 = load ptr, ptr @stderr, align 8, !tbaa !22
  %34 = tail call i32 (ptr, ptr, ...) @fprintf(ptr noundef %33, ptr noundef nonnull @.str.66, ptr noundef nonnull %28) #25
  br label %79

35:                                               ; preds = %29
  %36 = call ptr @fgets(ptr noundef nonnull %7, i32 noundef 32, ptr noundef nonnull %31)
  %.not36.i = icmp eq ptr %36, null
  br i1 %.not36.i, label %37, label %41

37:                                               ; preds = %35
  %38 = load ptr, ptr @stderr, align 8, !tbaa !22
  %39 = call i32 (ptr, ptr, ...) @fprintf(ptr noundef %38, ptr noundef nonnull @.str.67, ptr noundef nonnull %28) #25
  %40 = call i32 @fclose(ptr noundef nonnull %31)
  br label %79

41:                                               ; preds = %35
  %42 = call i32 @fclose(ptr noundef nonnull %31)
  %bcmp.i = call i32 @bcmp(ptr noundef nonnull dereferenceable(17) %7, ptr noundef nonnull dereferenceable(17) @.str.68, i64 17)
  %.not37.i = icmp eq i32 %bcmp.i, 0
  br i1 %.not37.i, label %46, label %43

43:                                               ; preds = %41
  %44 = load ptr, ptr @stderr, align 8, !tbaa !22
  %45 = call i32 (ptr, ptr, ...) @fprintf(ptr noundef %44, ptr noundef nonnull @.str.69, ptr noundef nonnull %28, ptr noundef nonnull %7) #25
  br label %79

46:                                               ; preds = %41
  call void @free(ptr noundef nonnull %28) #22
  %47 = call ptr @readdir(ptr noundef nonnull %24) #22
  %.not3843.i = icmp eq ptr %47, null
  br i1 %.not3843.i, label %._crit_edge.i, label %sub_0.i

sub_0.i:                                          ; preds = %46, %.tail.thread.i
  %48 = phi ptr [ %66, %.tail.thread.i ], [ %47, %46 ]
  %49 = getelementptr inbounds nuw i8, ptr %48, i64 19
  %50 = load i8, ptr %49, align 1
  %.not44.i = icmp eq i8 %50, 112
  br i1 %.not44.i, label %.tail.i, label %.tail.thread.i

.tail.i:                                          ; preds = %sub_0.i
  %51 = getelementptr inbounds nuw i8, ptr %48, i64 20
  %52 = load i8, ptr %51, align 1
  %53 = icmp eq i8 %52, 117
  br i1 %53, label %54, label %.tail.thread.i

54:                                               ; preds = %.tail.i
  call void @llvm.lifetime.start.p0(i64 8, ptr nonnull %8) #22
  %55 = getelementptr inbounds nuw i8, ptr %48, i64 21
  %56 = call i64 @strtoul(ptr noundef nonnull %55, ptr noundef nonnull %8, i32 noundef 10) #22
  %57 = load ptr, ptr %8, align 8, !tbaa !24
  %58 = load i8, ptr %57, align 1, !tbaa !25
  %.not42.i = icmp eq i8 %58, 0
  br i1 %.not42.i, label %59, label %62

59:                                               ; preds = %54
  %60 = trunc i64 %56 to i32
  %61 = call i32 @hwloc_bitmap_set(ptr noundef %23, i32 noundef %60) #22
  br label %65

62:                                               ; preds = %54
  %63 = load ptr, ptr @stderr, align 8, !tbaa !22
  %64 = call i32 (ptr, ptr, ...) @fprintf(ptr noundef %63, ptr noundef nonnull @.str.71, ptr noundef nonnull %49, ptr noundef nonnull %21) #25
  br label %65

65:                                               ; preds = %62, %59
  call void @llvm.lifetime.end.p0(i64 8, ptr nonnull %8) #22
  br label %.tail.thread.i

.tail.thread.i:                                   ; preds = %65, %.tail.i, %sub_0.i
  %66 = call ptr @readdir(ptr noundef nonnull %24) #22
  %.not38.i = icmp eq ptr %66, null
  br i1 %.not38.i, label %._crit_edge.i, label %sub_0.i, !llvm.loop !26

._crit_edge.i:                                    ; preds = %.tail.thread.i, %46
  %67 = call i32 @closedir(ptr noundef nonnull %24)
  %68 = call i32 @hwloc_bitmap_iszero(ptr noundef %23) #23
  %.not39.i = icmp eq i32 %68, 0
  br i1 %.not39.i, label %72, label %69

69:                                               ; preds = %._crit_edge.i
  %70 = load ptr, ptr @stderr, align 8, !tbaa !22
  %71 = call i32 (ptr, ptr, ...) @fprintf(ptr noundef %70, ptr noundef nonnull @.str.72, ptr noundef nonnull %21) #25
  br label %86

72:                                               ; preds = %._crit_edge.i
  %73 = call i32 @hwloc_bitmap_last(ptr noundef %23) #23
  %74 = call i32 @hwloc_bitmap_weight(ptr noundef %23) #23
  %75 = add nsw i32 %74, -1
  %.not40.i = icmp eq i32 %73, %75
  br i1 %.not40.i, label %82, label %76

76:                                               ; preds = %72
  %77 = load ptr, ptr @stderr, align 8, !tbaa !22
  %78 = call i32 (ptr, ptr, ...) @fprintf(ptr noundef %77, ptr noundef nonnull @.str.73, ptr noundef nonnull %21) #25
  br label %86

79:                                               ; preds = %43, %37, %32
  call void @free(ptr noundef nonnull %28) #22
  br label %80

80:                                               ; preds = %79, %25
  %81 = call i32 @closedir(ptr noundef nonnull %24)
  br label %86

82:                                               ; preds = %72
  call void @llvm.lifetime.end.p0(i64 32, ptr nonnull %7) #22
  %83 = getelementptr inbounds nuw i8, ptr %9, i64 48
  store i32 0, ptr %83, align 8, !tbaa !28
  %84 = call noalias ptr @strdup(ptr noundef nonnull %21) #22
  store ptr %84, ptr %19, align 8, !tbaa !21
  %85 = call i32 @hwloc_bitmap_weight(ptr noundef %23) #23
  store i32 %85, ptr %13, align 8, !tbaa !29
  br label %89

86:                                               ; preds = %80, %69, %76, %22
  call void @llvm.lifetime.end.p0(i64 32, ptr nonnull %7) #22
  %87 = load ptr, ptr @stderr, align 8, !tbaa !22
  %88 = call i64 @fwrite(ptr nonnull @.str.2, i64 44, i64 1, ptr %87) #26
  br label %89

89:                                               ; preds = %86, %82
  call void @hwloc_bitmap_free(ptr noundef %23) #22
  br label %90

90:                                               ; preds = %6, %10, %89
  ret ptr %9
}